; ModuleID = '8/1065.c'
source_filename = "8/1065.c"
target datalayout = "e-m:e-p270:32:32-p271:32:32-p272:64:64-i64:64-f80:128-n8:16:32:64-S128"
target triple = "x86_64-pc-linux-gnu"

@i = common dso_local global i32 0, align 4
@a = common dso_local global [100 x i32] zeroinitializer, align 16
@b = common dso_local global [100 x i32] zeroinitializer, align 16
@.str = private unnamed_addr constant [3 x i8] c"%d\00", align 1
@.str.1 = private unnamed_addr constant [4 x i8] c" %d\00", align 1
@.str.2 = private unnamed_addr constant [6 x i8] c"%d %d\00", align 1
@n = common dso_local global i32 0, align 4
@m = common dso_local global i32 0, align 4

; Function Attrs: noinline nounwind uwtable
define dso_local void @passed(i32 %0, i32 %1) #0 {
  %3 = alloca i32, align 4
  %4 = alloca i32, align 4
  %5 = alloca i32, align 4
  %6 = alloca i32, align 4
  store i32 %0, i32* %3, align 4
  store i32 %1, i32* %4, align 4
  store i32 1, i32* @i, align 4
  br label %7

7:                                                ; preds = %63, %2
  %8 = load i32, i32* @i, align 4
  %9 = load i32, i32* %3, align 4
  %10 = icmp slt i32 %8, %9
  br i1 %10, label %11, label %66

11:                                               ; preds = %7
  store i32 0, i32* %5, align 4
  br label %12

12:                                               ; preds = %59, %11
  %13 = load i32, i32* %5, align 4
  %14 = load i32, i32* @i, align 4
  %15 = icmp slt i32 %13, %14
  br i1 %15, label %16, label %62

16:                                               ; preds = %12
  %17 = load i32, i32* @i, align 4
  %18 = load i32, i32* %5, align 4
  %19 = sub nsw i32 %17, %18
  %20 = sext i32 %19 to i64
  %21 = getelementptr inbounds [100 x i32], [100 x i32]* @a, i64 0, i64 %20
  %22 = load i32, i32* %21, align 4
  %23 = load i32, i32* @i, align 4
  %24 = sub nsw i32 %23, 1
  %25 = load i32, i32* %5, align 4
  %26 = sub nsw i32 %24, %25
  %27 = sext i32 %26 to i64
  %28 = getelementptr inbounds [100 x i32], [100 x i32]* @a, i64 0, i64 %27
  %29 = load i32, i32* %28, align 4
  %30 = icmp slt i32 %22, %29
  br i1 %30, label %31, label %57

31:                                               ; preds = %16
  %32 = load i32, i32* @i, align 4
  %33 = load i32, i32* %5, align 4
  %34 = sub nsw i32 %32, %33
  %35 = sext i32 %34 to i64
  %36 = getelementptr inbounds [100 x i32], [100 x i32]* @a, i64 0, i64 %35
  %37 = load i32, i32* %36, align 4
  store i32 %37, i32* %6, align 4
  %38 = load i32, i32* @i, align 4
  %39 = sub nsw i32 %38, 1
  %40 = load i32, i32* %5, align 4
  %41 = sub nsw i32 %39, %40
  %42 = sext i32 %41 to i64
  %43 = getelementptr inbounds [100 x i32], [100 x i32]* @a, i64 0, i64 %42
  %44 = load i32, i32* %43, align 4
  %45 = load i32, i32* @i, align 4
  %46 = load i32, i32* %5, align 4
  %47 = sub nsw i32 %45, %46
  %48 = sext i32 %47 to i64
  %49 = getelementptr inbounds [100 x i32], [100 x i32]* @a, i64 0, i64 %48
  store i32 %44, i32* %49, align 4
  %50 = load i32, i32* %6, align 4
  %51 = load i32, i32* @i, align 4
  %52 = sub nsw i32 %51, 1
  %53 = load i32, i32* %5, align 4
  %54 = sub nsw i32 %52, %53
  %55 = sext i32 %54 to i64
  %56 = getelementptr inbounds [100 x i32], [100 x i32]* @a, i64 0, i64 %55
  store i32 %50, i32* %56, align 4
  br label %58

57:                                               ; preds = %16
  br label %62

58:                                               ; preds = %31
  br label %59

59:                                               ; preds = %58
  %60 = load i32, i32* %5, align 4
  %61 = add nsw i32 %60, 1
  store i32 %61, i32* %5, align 4
  br label %12

62:                                               ; preds = %57, %12
  br label %63

63:                                               ; preds = %62
  %64 = load i32, i32* @i, align 4
  %65 = add nsw i32 %64, 1
  store i32 %65, i32* @i, align 4
  br label %7

66:                                               ; preds = %7
  store i32 1, i32* @i, align 4
  br label %67

67:                                               ; preds = %123, %66
  %68 = load i32, i32* @i, align 4
  %69 = load i32, i32* %4, align 4
  %70 = icmp slt i32 %68, %69
  br i1 %70, label %71, label %126

71:                                               ; preds = %67
  store i32 0, i32* %5, align 4
  br label %72

72:                                               ; preds = %119, %71
  %73 = load i32, i32* %5, align 4
  %74 = load i32, i32* @i, align 4
  %75 = icmp slt i32 %73, %74
  br i1 %75, label %76, label %122

76:                                               ; preds = %72
  %77 = load i32, i32* @i, align 4
  %78 = load i32, i32* %5, align 4
  %79 = sub nsw i32 %77, %78
  %80 = sext i32 %79 to i64
  %81 = getelementptr inbounds [100 x i32], [100 x i32]* @b, i64 0, i64 %80
  %82 = load i32, i32* %81, align 4
  %83 = load i32, i32* @i, align 4
  %84 = sub nsw i32 %83, 1
  %85 = load i32, i32* %5, align 4
  %86 = sub nsw i32 %84, %85
  %87 = sext i32 %86 to i64
  %88 = getelementptr inbounds [100 x i32], [100 x i32]* @b, i64 0, i64 %87
  %89 = load i32, i32* %88, align 4
  %90 = icmp slt i32 %82, %89
  br i1 %90, label %91, label %117

91:                                               ; preds = %76
  %92 = load i32, i32* @i, align 4
  %93 = load i32, i32* %5, align 4
  %94 = sub nsw i32 %92, %93
  %95 = sext i32 %94 to i64
  %96 = getelementptr inbounds [100 x i32], [100 x i32]* @b, i64 0, i64 %95
  %97 = load i32, i32* %96, align 4
  store i32 %97, i32* %6, align 4
  %98 = load i32, i32* @i, align 4
  %99 = sub nsw i32 %98, 1
  %100 = load i32, i32* %5, align 4
  %101 = sub nsw i32 %99, %100
  %102 = sext i32 %101 to i64
  %103 = getelementptr inbounds [100 x i32], [100 x i32]* @b, i64 0, i64 %102
  %104 = load i32, i32* %103, align 4
  %105 = load i32, i32* @i, align 4
  %106 = load i32, i32* %5, align 4
  %107 = sub nsw i32 %105, %106
  %108 = sext i32 %107 to i64
  %109 = getelementptr inbounds [100 x i32], [100 x i32]* @b, i64 0, i64 %108
  store i32 %104, i32* %109, align 4
  %110 = load i32, i32* %6, align 4
  %111 = load i32, i32* @i, align 4
  %112 = sub nsw i32 %111, 1
  %113 = load i32, i32* %5, align 4
  %114 = sub nsw i32 %112, %113
  %115 = sext i32 %114 to i64
  %116 = getelementptr inbounds [100 x i32], [100 x i32]* @b, i64 0, i64 %115
  store i32 %110, i32* %116, align 4
  br label %118

117:                                              ; preds = %76
  br label %122

118:                                              ; preds = %91
  br label %119

119:                                              ; preds = %118
  %120 = load i32, i32* %5, align 4
  %121 = add nsw i32 %120, 1
  store i32 %121, i32* %5, align 4
  br label %72

122:                                              ; preds = %117, %72
  br label %123

123:                                              ; preds = %122
  %124 = load i32, i32* @i, align 4
  %125 = add nsw i32 %124, 1
  store i32 %125, i32* @i, align 4
  br label %67

126:                                              ; preds = %67
  %127 = load i32, i32* getelementptr inbounds ([100 x i32], [100 x i32]* @a, i64 0, i64 0), align 16
  %128 = call i32 (i8*, ...) @printf(i8* getelementptr inbounds ([3 x i8], [3 x i8]* @.str, i64 0, i64 0), i32 %127)
  store i32 1, i32* @i, align 4
  br label %129

129:                                              ; preds = %139, %126
  %130 = load i32, i32* @i, align 4
  %131 = load i32, i32* %3, align 4
  %132 = icmp slt i32 %130, %131
  br i1 %132, label %133, label %142

133:                                              ; preds = %129
  %134 = load i32, i32* @i, align 4
  %135 = sext i32 %134 to i64
  %136 = getelementptr inbounds [100 x i32], [100 x i32]* @a, i64 0, i64 %135
  %137 = load i32, i32* %136, align 4
  %138 = call i32 (i8*, ...) @printf(i8* getelementptr inbounds ([4 x i8], [4 x i8]* @.str.1, i64 0, i64 0), i32 %137)
  br label %139

139:                                              ; preds = %133
  %140 = load i32, i32* @i, align 4
  %141 = add nsw i32 %140, 1
  store i32 %141, i32* @i, align 4
  br label %129

142:                                              ; preds = %129
  store i32 0, i32* @i, align 4
  br label %143

143:                                              ; preds = %153, %142
  %144 = load i32, i32* @i, align 4
  %145 = load i32, i32* %4, align 4
  %146 = icmp slt i32 %144, %145
  br i1 %146, label %147, label %156

147:                                              ; preds = %143
  %148 = load i32, i32* @i, align 4
  %149 = sext i32 %148 to i64
  %150 = getelementptr inbounds [100 x i32], [100 x i32]* @b, i64 0, i64 %149
  %151 = load i32, i32* %150, align 4
  %152 = call i32 (i8*, ...) @printf(i8* getelementptr inbounds ([4 x i8], [4 x i8]* @.str.1, i64 0, i64 0), i32 %151)
  br label %153

153:                                              ; preds = %147
  %154 = load i32, i32* @i, align 4
  %155 = add nsw i32 %154, 1
  store i32 %155, i32* @i, align 4
  br label %143

156:                                              ; preds = %143
  ret void
}

declare dso_local i32 @printf(i8*, ...) #1

; Function Attrs: noinline nounwind uwtable
define dso_local i32 @main() #0 {
  %1 = alloca i32, align 4
  store i32 0, i32* %1, align 4
  %2 = call i32 (i8*, ...) @__isoc99_scanf(i8* getelementptr inbounds ([6 x i8], [6 x i8]* @.str.2, i64 0, i64 0), i32* @n, i32* @m)
  store i32 0, i32* @i, align 4
  br label %3

3:                                                ; preds = %12, %0
  %4 = load i32, i32* @i, align 4
  %5 = load i32, i32* @n, align 4
  %6 = icmp slt i32 %4, %5
  br i1 %6, label %7, label %15

7:                                                ; preds = %3
  %8 = load i32, i32* @i, align 4
  %9 = sext i32 %8 to i64
  %10 = getelementptr inbounds [100 x i32], [100 x i32]* @a, i64 0, i64 %9
  %11 = call i32 (i8*, ...) @__isoc99_scanf(i8* getelementptr inbounds ([3 x i8], [3 x i8]* @.str, i64 0, i64 0), i32* %10)
  br label %12

12:                                               ; preds = %7
  %13 = load i32, i32* @i, align 4
  %14 = add nsw i32 %13, 1
  store i32 %14, i32* @i, align 4
  br label %3

15:                                               ; preds = %3
  store i32 0, i32* @i, align 4
  br label %16

16:                                               ; preds = %25, %15
  %17 = load i32, i32* @i, align 4
  %18 = load i32, i32* @m, align 4
  %19 = icmp slt i32 %17, %18
  br i1 %19, label %20, label %28

20:                                               ; preds = %16
  %21 = load i32, i32* @i, align 4
  %22 = sext i32 %21 to i64
  %23 = getelementptr inbounds [100 x i32], [100 x i32]* @b, i64 0, i64 %22
  %24 = call i32 (i8*, ...) @__isoc99_scanf(i8* getelementptr inbounds ([3 x i8], [3 x i8]* @.str, i64 0, i64 0), i32* %23)
  br label %25

25:                                               ; preds = %20
  %26 = load i32, i32* @i, align 4
  %27 = add nsw i32 %26, 1
  store i32 %27, i32* @i, align 4
  br label %16

28:                                               ; preds = %16
  %29 = load i32, i32* @n, align 4
  %30 = load i32, i32* @m, align 4
  call void @passed(i32 %29, i32 %30)
  %31 = load i32, i32* %1, align 4
  ret i32 %31
}

declare dso_local i32 @__isoc99_scanf(i8*, ...) #1


!llvm.module.flags = !{!0}
!llvm.ident = !{!1}

!0 = !{i32 1, !"wchar_size", i32 4}
!1 = !{!"clang version 10.0.0-4ubuntu1 "}
